; Function Attrs: uwtable
define hidden void @_ZThn80_N3opt7context6adjustEjRK8rational(ptr noalias sret(%class.rational) align 8 %agg.result, ptr nocapture noundef readonly %this, i32 noundef %id, ptr noundef nonnull align 8 dereferenceable(32) %v) unnamed_addr #13 align 2 {
entry:
  %m_objectives.i = getelementptr inbounds i8, ptr %this, i64 512
  %0 = load ptr, ptr %m_objectives.i, align 8, !noalias !80
  %idxprom.i.i = zext i32 %id to i64
  %m_adjust_value.i = getelementptr inbounds %"struct.opt::context::objective", ptr %0, i64 %idxprom.i.i, i32 5
  tail call void @_ZNK3opt12adjust_valueclERK8rational(ptr sret(%class.rational) align 8 %agg.result, ptr noundef nonnull align 8 dereferenceable(33) %m_adjust_value.i, ptr noundef nonnull align 8 dereferenceable(32) %v)
  ret void
}